target datalayout = "e-m:e-p270:32:32-p271:32:32-p272:64:64-i64:64-i128:128-f80:128-n8:16:32:64-S128"
target triple = "x86_64-pc-linux-gnu"

%struct.ossl_param_st = type { ptr, i32, ptr, i64, i64 }

@.str.53 = private unnamed_addr constant [31 x i8] c"../openssl/test/evp_kdf_test.c\00", align 1
@.str.60 = private unnamed_addr constant [7 x i8] c"sha256\00", align 1
@.str.67 = private unnamed_addr constant [2 x i8] c"0\00", align 1
@.str.68 = private unnamed_addr constant [4 x i8] c"out\00", align 1
@.str.69 = private unnamed_addr constant [9 x i8] c"expected\00", align 1
@.str.71 = private unnamed_addr constant [5 x i8] c"salt\00", align 1
@.str.73 = private unnamed_addr constant [7 x i8] c"digest\00", align 1
@.str.76 = private unnamed_addr constant [4 x i8] c"mac\00", align 1
@.str.80 = private unnamed_addr constant [4 x i8] c"key\00", align 1
@.str.89 = private unnamed_addr constant [5 x i8] c"HMAC\00", align 1
@.str.93 = private unnamed_addr constant [5 x i8] c"info\00", align 1
@.str.120 = private unnamed_addr constant [47 x i8] c"EVP_KDF_derive(kctx, out, sizeof(out), params)\00", align 1
@.str.153 = private unnamed_addr constant [42 x i8] c"kctx = get_kdfbyname(OSSL_KDF_NAME_SSKDF)\00", align 1
@.str.154 = private unnamed_addr constant [6 x i8] c"SSKDF\00", align 1
@test_kdf_ss_hmac.z = internal global [14 x i8] c"\B7J\14\9A\16\15F\F8\C2\0B\06\ACN\D4", align 1
@test_kdf_ss_hmac.other = internal global [12 x i8] c"4\8A7\A2~\F1(/_\02\0D\CC", align 1
@test_kdf_ss_hmac.salt = internal global [16 x i8] c"68'\1C\CDh\A2]\C2N\CD\DD9\EF?\89", align 16
@test_kdf_ss_hmac.expected = internal constant [16 x i8] c"D\F6v\E8\\\1B\1A\8B\BC=1\92\18c\1C\A3", align 16

; Function Attrs: nounwind uwtable
define internal ptr @get_kdfbyname_libctx(ptr noundef %0, ptr noundef %1) #0 {
  %3 = alloca ptr, align 8
  %4 = alloca ptr, align 8
  %5 = alloca ptr, align 8
  %6 = alloca ptr, align 8
  store ptr %0, ptr %3, align 8, !tbaa !11
  store ptr %1, ptr %4, align 8, !tbaa !18
  call void @llvm.lifetime.start.p0(i64 8, ptr %5) #6
  %7 = load ptr, ptr %3, align 8, !tbaa !11
  %8 = load ptr, ptr %4, align 8, !tbaa !18
  %9 = call ptr @EVP_KDF_fetch(ptr noundef %7, ptr noundef %8, ptr noundef null)
  store ptr %9, ptr %5, align 8, !tbaa !26
  call void @llvm.lifetime.start.p0(i64 8, ptr %6) #6
  %10 = load ptr, ptr %5, align 8, !tbaa !26
  %11 = call ptr @EVP_KDF_CTX_new(ptr noundef %10)
  store ptr %11, ptr %6, align 8, !tbaa !8
  %12 = load ptr, ptr %5, align 8, !tbaa !26
  call void @EVP_KDF_free(ptr noundef %12)
  %13 = load ptr, ptr %6, align 8, !tbaa !8
  call void @llvm.lifetime.end.p0(i64 8, ptr %6) #6
  call void @llvm.lifetime.end.p0(i64 8, ptr %5) #6
  ret ptr %13
}

; Function Attrs: nounwind uwtable
define internal ptr @get_kdfbyname(ptr noundef %0) #0 {
  %2 = alloca ptr, align 8
  store ptr %0, ptr %2, align 8, !tbaa !18
  %3 = load ptr, ptr %2, align 8, !tbaa !18
  %4 = call ptr @get_kdfbyname_libctx(ptr noundef null, ptr noundef %3)
  ret ptr %4
}

; Function Attrs: nounwind uwtable
define internal i32 @test_kdf_ss_hmac() #0 {
  %1 = alloca i32, align 4
  %2 = alloca ptr, align 8
  %3 = alloca [6 x %struct.ossl_param_st], align 16
  %4 = alloca ptr, align 8
  %5 = alloca [16 x i8], align 16
  %6 = alloca %struct.ossl_param_st, align 8
  %7 = alloca %struct.ossl_param_st, align 8
  %8 = alloca %struct.ossl_param_st, align 8
  %9 = alloca %struct.ossl_param_st, align 8
  %10 = alloca %struct.ossl_param_st, align 8
  %11 = alloca %struct.ossl_param_st, align 8
  call void @llvm.lifetime.start.p0(i64 4, ptr %1) #6
  call void @llvm.lifetime.start.p0(i64 8, ptr %2) #6
  call void @llvm.lifetime.start.p0(i64 240, ptr %3) #6
  call void @llvm.lifetime.start.p0(i64 8, ptr %4) #6
  %12 = getelementptr inbounds [6 x %struct.ossl_param_st], ptr %3, i64 0, i64 0
  store ptr %12, ptr %4, align 8, !tbaa !13
  call void @llvm.lifetime.start.p0(i64 16, ptr %5) #6
  %13 = load ptr, ptr %4, align 8, !tbaa !13
  %14 = getelementptr inbounds nuw %struct.ossl_param_st, ptr %13, i32 1
  store ptr %14, ptr %4, align 8, !tbaa !13
  call void @llvm.lifetime.start.p0(i64 40, ptr %6) #6
  call void @OSSL_PARAM_construct_utf8_string(ptr dead_on_unwind writable sret(%struct.ossl_param_st) align 8 %6, ptr noundef @.str.76, ptr noundef @.str.89, i64 noundef 0)
  call void @llvm.memcpy.p0.p0.i64(ptr align 8 %13, ptr align 8 %6, i64 40, i1 false), !tbaa.struct !17
  call void @llvm.lifetime.end.p0(i64 40, ptr %6) #6
  %15 = load ptr, ptr %4, align 8, !tbaa !13
  %16 = getelementptr inbounds nuw %struct.ossl_param_st, ptr %15, i32 1
  store ptr %16, ptr %4, align 8, !tbaa !13
  call void @llvm.lifetime.start.p0(i64 40, ptr %7) #6
  call void @OSSL_PARAM_construct_utf8_string(ptr dead_on_unwind writable sret(%struct.ossl_param_st) align 8 %7, ptr noundef @.str.73, ptr noundef @.str.60, i64 noundef 0)
  call void @llvm.memcpy.p0.p0.i64(ptr align 8 %15, ptr align 8 %7, i64 40, i1 false), !tbaa.struct !17
  call void @llvm.lifetime.end.p0(i64 40, ptr %7) #6
  %17 = load ptr, ptr %4, align 8, !tbaa !13
  %18 = getelementptr inbounds nuw %struct.ossl_param_st, ptr %17, i32 1
  store ptr %18, ptr %4, align 8, !tbaa !13
  call void @llvm.lifetime.start.p0(i64 40, ptr %8) #6
  call void @OSSL_PARAM_construct_octet_string(ptr dead_on_unwind writable sret(%struct.ossl_param_st) align 8 %8, ptr noundef @.str.80, ptr noundef @test_kdf_ss_hmac.z, i64 noundef 14)
  call void @llvm.memcpy.p0.p0.i64(ptr align 8 %17, ptr align 8 %8, i64 40, i1 false), !tbaa.struct !17
  call void @llvm.lifetime.end.p0(i64 40, ptr %8) #6
  %19 = load ptr, ptr %4, align 8, !tbaa !13
  %20 = getelementptr inbounds nuw %struct.ossl_param_st, ptr %19, i32 1
  store ptr %20, ptr %4, align 8, !tbaa !13
  call void @llvm.lifetime.start.p0(i64 40, ptr %9) #6
  call void @OSSL_PARAM_construct_octet_string(ptr dead_on_unwind writable sret(%struct.ossl_param_st) align 8 %9, ptr noundef @.str.93, ptr noundef @test_kdf_ss_hmac.other, i64 noundef 12)
  call void @llvm.memcpy.p0.p0.i64(ptr align 8 %19, ptr align 8 %9, i64 40, i1 false), !tbaa.struct !17
  call void @llvm.lifetime.end.p0(i64 40, ptr %9) #6
  %21 = load ptr, ptr %4, align 8, !tbaa !13
  %22 = getelementptr inbounds nuw %struct.ossl_param_st, ptr %21, i32 1
  store ptr %22, ptr %4, align 8, !tbaa !13
  call void @llvm.lifetime.start.p0(i64 40, ptr %10) #6
  call void @OSSL_PARAM_construct_octet_string(ptr dead_on_unwind writable sret(%struct.ossl_param_st) align 8 %10, ptr noundef @.str.71, ptr noundef @test_kdf_ss_hmac.salt, i64 noundef 16)
  call void @llvm.memcpy.p0.p0.i64(ptr align 8 %21, ptr align 8 %10, i64 40, i1 false), !tbaa.struct !17
  call void @llvm.lifetime.end.p0(i64 40, ptr %10) #6
  %23 = load ptr, ptr %4, align 8, !tbaa !13
  call void @llvm.lifetime.start.p0(i64 40, ptr %11) #6
  call void @OSSL_PARAM_construct_end(ptr dead_on_unwind writable sret(%struct.ossl_param_st) align 8 %11)
  call void @llvm.memcpy.p0.p0.i64(ptr align 8 %23, ptr align 8 %11, i64 40, i1 false), !tbaa.struct !17
  call void @llvm.lifetime.end.p0(i64 40, ptr %11) #6
  %24 = call ptr @get_kdfbyname(ptr noundef @.str.154)
  store ptr %24, ptr %2, align 8, !tbaa !8
  %25 = call i32 @test_ptr(ptr noundef @.str.53, i32 noundef 1627, ptr noundef @.str.153, ptr noundef %24)
  %26 = icmp ne i32 %25, 0
  br i1 %26, label %27, label %38

27:                                               ; preds = %0
  %28 = load ptr, ptr %2, align 8, !tbaa !8
  %29 = getelementptr inbounds [16 x i8], ptr %5, i64 0, i64 0
  %30 = getelementptr inbounds [6 x %struct.ossl_param_st], ptr %3, i64 0, i64 0
  %31 = call i32 @EVP_KDF_derive(ptr noundef %28, ptr noundef %29, i64 noundef 16, ptr noundef %30)
  %32 = call i32 @test_int_gt(ptr noundef @.str.53, i32 noundef 1628, ptr noundef @.str.120, ptr noundef @.str.67, i32 noundef %31, i32 noundef 0)
  %33 = icmp ne i32 %32, 0
  br i1 %33, label %34, label %38

34:                                               ; preds = %27
  %35 = getelementptr inbounds [16 x i8], ptr %5, i64 0, i64 0
  %36 = call i32 @test_mem_eq(ptr noundef @.str.53, i32 noundef 1629, ptr noundef @.str.68, ptr noundef @.str.69, ptr noundef %35, i64 noundef 16, ptr noundef @test_kdf_ss_hmac.expected, i64 noundef 16)
  %37 = icmp ne i32 %36, 0
  br label %38

38:                                               ; preds = %34, %27, %0
  %39 = phi i1 [ false, %27 ], [ false, %0 ], [ %37, %34 ]
  %40 = zext i1 %39 to i32
  store i32 %40, ptr %1, align 4, !tbaa !4
  %41 = load ptr, ptr %2, align 8, !tbaa !8
  call void @EVP_KDF_CTX_free(ptr noundef %41)
  %42 = load i32, ptr %1, align 4, !tbaa !4
  call void @llvm.lifetime.end.p0(i64 16, ptr %5) #6
  call void @llvm.lifetime.end.p0(i64 8, ptr %4) #6
  call void @llvm.lifetime.end.p0(i64 240, ptr %3) #6
  call void @llvm.lifetime.end.p0(i64 8, ptr %2) #6
  call void @llvm.lifetime.end.p0(i64 4, ptr %1) #6
  ret i32 %42
}