; Function Attrs: nounwind uwtable
define internal range(i32 0, 2) i32 @test_kdf_ss_hmac() #0 {
  %1 = alloca [6 x %struct.ossl_param_st], align 16
  %2 = alloca [16 x i8], align 16
  %3 = alloca %struct.ossl_param_st, align 8
  %4 = alloca %struct.ossl_param_st, align 8
  %5 = alloca %struct.ossl_param_st, align 8
  %6 = alloca %struct.ossl_param_st, align 8
  %7 = alloca %struct.ossl_param_st, align 8
  call void @llvm.lifetime.start.p0(i64 240, ptr nonnull %1) #6
  call void @llvm.lifetime.start.p0(i64 16, ptr nonnull %2) #6
  %8 = getelementptr inbounds nuw i8, ptr %1, i64 40
  call void @OSSL_PARAM_construct_utf8_string(ptr dead_on_unwind nonnull writable sret(%struct.ossl_param_st) align 8 %1, ptr noundef nonnull @.str.76, ptr noundef nonnull @.str.89, i64 noundef 0) #6
  %9 = getelementptr inbounds nuw i8, ptr %1, i64 80
  call void @llvm.lifetime.start.p0(i64 40, ptr nonnull %3) #6
  call void @OSSL_PARAM_construct_utf8_string(ptr dead_on_unwind nonnull writable sret(%struct.ossl_param_st) align 8 %3, ptr noundef nonnull @.str.73, ptr noundef nonnull @.str.60, i64 noundef 0) #6
  call void @llvm.memcpy.p0.p0.i64(ptr noundef nonnull align 8 dereferenceable(40) %8, ptr noundef nonnull align 8 dereferenceable(40) %3, i64 40, i1 false), !tbaa.struct !10
  call void @llvm.lifetime.end.p0(i64 40, ptr nonnull %3) #6
  %10 = getelementptr inbounds nuw i8, ptr %1, i64 120
  call void @llvm.lifetime.start.p0(i64 40, ptr nonnull %4) #6
  call void @OSSL_PARAM_construct_octet_string(ptr dead_on_unwind nonnull writable sret(%struct.ossl_param_st) align 8 %4, ptr noundef nonnull @.str.80, ptr noundef nonnull @test_kdf_ss_hmac.z, i64 noundef 14) #6
  call void @llvm.memcpy.p0.p0.i64(ptr noundef nonnull align 16 dereferenceable(40) %9, ptr noundef nonnull align 8 dereferenceable(40) %4, i64 40, i1 false), !tbaa.struct !10
  call void @llvm.lifetime.end.p0(i64 40, ptr nonnull %4) #6
  %11 = getelementptr inbounds nuw i8, ptr %1, i64 160
  call void @llvm.lifetime.start.p0(i64 40, ptr nonnull %5) #6
  call void @OSSL_PARAM_construct_octet_string(ptr dead_on_unwind nonnull writable sret(%struct.ossl_param_st) align 8 %5, ptr noundef nonnull @.str.93, ptr noundef nonnull @test_kdf_ss_hmac.other, i64 noundef 12) #6
  call void @llvm.memcpy.p0.p0.i64(ptr noundef nonnull align 8 dereferenceable(40) %10, ptr noundef nonnull align 8 dereferenceable(40) %5, i64 40, i1 false), !tbaa.struct !10
  call void @llvm.lifetime.end.p0(i64 40, ptr nonnull %5) #6
  %12 = getelementptr inbounds nuw i8, ptr %1, i64 200
  call void @llvm.lifetime.start.p0(i64 40, ptr nonnull %6) #6
  call void @OSSL_PARAM_construct_octet_string(ptr dead_on_unwind nonnull writable sret(%struct.ossl_param_st) align 8 %6, ptr noundef nonnull @.str.71, ptr noundef nonnull @test_kdf_ss_hmac.salt, i64 noundef 16) #6
  call void @llvm.memcpy.p0.p0.i64(ptr noundef nonnull align 16 dereferenceable(40) %11, ptr noundef nonnull align 8 dereferenceable(40) %6, i64 40, i1 false), !tbaa.struct !10
  call void @llvm.lifetime.end.p0(i64 40, ptr nonnull %6) #6
  call void @llvm.lifetime.start.p0(i64 40, ptr nonnull %7) #6
  call void @OSSL_PARAM_construct_end(ptr dead_on_unwind nonnull writable sret(%struct.ossl_param_st) align 8 %7) #6
  call void @llvm.memcpy.p0.p0.i64(ptr noundef nonnull align 8 dereferenceable(40) %12, ptr noundef nonnull align 8 dereferenceable(40) %7, i64 40, i1 false), !tbaa.struct !10
  call void @llvm.lifetime.end.p0(i64 40, ptr nonnull %7) #6
  %13 = call ptr @EVP_KDF_fetch(ptr noundef null, ptr noundef nonnull @.str.154, ptr noundef null) #6
  %14 = call ptr @EVP_KDF_CTX_new(ptr noundef %13) #6
  call void @EVP_KDF_free(ptr noundef %13) #6
  %15 = call i32 @test_ptr(ptr noundef nonnull @.str.53, i32 noundef 1627, ptr noundef nonnull @.str.153, ptr noundef %14) #6
  %.not = icmp eq i32 %15, 0
  br i1 %.not, label %23, label %16

16:                                               ; preds = %0
  %17 = call i32 @EVP_KDF_derive(ptr noundef %14, ptr noundef nonnull %2, i64 noundef 16, ptr noundef nonnull %1) #6
  %18 = call i32 @test_int_gt(ptr noundef nonnull @.str.53, i32 noundef 1628, ptr noundef nonnull @.str.120, ptr noundef nonnull @.str.67, i32 noundef %17, i32 noundef 0) #6
  %.not8 = icmp eq i32 %18, 0
  br i1 %.not8, label %23, label %19

19:                                               ; preds = %16
  %20 = call i32 @test_mem_eq(ptr noundef nonnull @.str.53, i32 noundef 1629, ptr noundef nonnull @.str.68, ptr noundef nonnull @.str.69, ptr noundef nonnull %2, i64 noundef 16, ptr noundef nonnull @test_kdf_ss_hmac.expected, i64 noundef 16) #6
  %21 = icmp ne i32 %20, 0
  %22 = zext i1 %21 to i32
  br label %23

23:                                               ; preds = %19, %16, %0
  %24 = phi i32 [ 0, %16 ], [ 0, %0 ], [ %22, %19 ]
  call void @EVP_KDF_CTX_free(ptr noundef %14) #6
  call void @llvm.lifetime.end.p0(i64 16, ptr nonnull %2) #6
  call void @llvm.lifetime.end.p0(i64 240, ptr nonnull %1) #6
  ret i32 %24
}